; Function Attrs: mustprogress uwtable
define internal noundef zeroext i1 @_ZN4Luau12_GLOBAL__N_115FindCyclicTypes5visitEPKNS_11TypePackVarE(ptr noundef nonnull align 8 dereferenceable(272) %0, ptr noundef %1) unnamed_addr #6 align 2 {
  %3 = alloca ptr, align 8
  store ptr %1, ptr %3, align 8, !tbaa !88
  %4 = getelementptr inbounds nuw i8, ptr %0, i64 128
  %5 = call noundef nonnull align 1 dereferenceable(1) ptr @_ZN4Luau12DenseHashMapIPKNS_11TypePackVarEbNS_16DenseHashPointerESt8equal_toIS3_EEixERKS3_(ptr noundef nonnull align 8 dereferenceable(48) %4, ptr noundef nonnull align 8 dereferenceable(8) %3)
  %6 = load i8, ptr %5, align 1, !tbaa !156, !range !16, !noundef !17
  %7 = trunc nuw i8 %6 to i1
  br i1 %7, label %_ZN4Luau3SetIPKNS_11TypePackVarENS_16DenseHashPointerEE6insertERKS3_.exit, label %8

8:                                                ; preds = %2
  store i8 1, ptr %5, align 1, !tbaa !156
  %9 = getelementptr inbounds nuw i8, ptr %0, i64 168
  %10 = load i64, ptr %9, align 8, !tbaa !121
  %11 = add i64 %10, 1
  store i64 %11, ptr %9, align 8, !tbaa !121
  br label %_ZN4Luau3SetIPKNS_11TypePackVarENS_16DenseHashPointerEE6insertERKS3_.exit

_ZN4Luau3SetIPKNS_11TypePackVarENS_16DenseHashPointerEE6insertERKS3_.exit: ; preds = %2, %8
  %12 = xor i1 %7, true
  ret i1 %12
}